target datalayout = "e-m:e-p270:32:32-p271:32:32-p272:64:64-i64:64-i128:128-f80:128-n8:16:32:64-S128"
target triple = "x86_64-unknown-linux-gnu"

%"class.Assimp::DefaultIOStream" = type { %"class.Assimp::IOStream", ptr, %"class.std::__cxx11::basic_string", i64 }
%"class.Assimp::IOStream" = type { ptr }
%"class.std::__cxx11::basic_string" = type { %"struct.std::__cxx11::basic_string<char>::_Alloc_hider", i64, %union.anon }
%"struct.std::__cxx11::basic_string<char>::_Alloc_hider" = type { ptr }
%union.anon = type { i64, [8 x i8] }

; Function Attrs: mustprogress uwtable
define noundef i64 @_ZN6Assimp15DefaultIOStream4ReadEPvmm(ptr noundef nonnull align 8 dereferenceable(56) %this, ptr noundef %pvBuffer, i64 noundef %pSize, i64 noundef %pCount) unnamed_addr #5 align 2 {
entry:
  %retval = alloca i64, align 8
  %this.addr = alloca ptr, align 8
  %pvBuffer.addr = alloca ptr, align 8
  %pSize.addr = alloca i64, align 8
  %pCount.addr = alloca i64, align 8
  store ptr %this, ptr %this.addr, align 8
  store ptr %pvBuffer, ptr %pvBuffer.addr, align 8
  store i64 %pSize, ptr %pSize.addr, align 8
  store i64 %pCount, ptr %pCount.addr, align 8
  %this1 = load ptr, ptr %this.addr, align 8
  %0 = load i64, ptr %pCount.addr, align 8
  %cmp = icmp eq i64 0, %0
  br i1 %cmp, label %if.then, label %if.end

if.then:                                          ; preds = %entry
  store i64 0, ptr %retval, align 8
  br label %return

if.end:                                           ; preds = %entry
  %mFile = getelementptr inbounds %"class.Assimp::DefaultIOStream", ptr %this1, i32 0, i32 1
  %1 = load ptr, ptr %mFile, align 8
  %tobool = icmp ne ptr %1, null
  br i1 %tobool, label %cond.true, label %cond.false

cond.true:                                        ; preds = %if.end
  %2 = load ptr, ptr %pvBuffer.addr, align 8
  %3 = load i64, ptr %pSize.addr, align 8
  %4 = load i64, ptr %pCount.addr, align 8
  %mFile2 = getelementptr inbounds %"class.Assimp::DefaultIOStream", ptr %this1, i32 0, i32 1
  %5 = load ptr, ptr %mFile2, align 8
  %call = call i64 @fread(ptr noundef %2, i64 noundef %3, i64 noundef %4, ptr noundef %5)
  br label %cond.end

cond.false:                                       ; preds = %if.end
  br label %cond.end

cond.end:                                         ; preds = %cond.false, %cond.true
  %cond = phi i64 [ %call, %cond.true ], [ 0, %cond.false ]
  store i64 %cond, ptr %retval, align 8
  br label %return

return:                                           ; preds = %cond.end, %if.then
  %6 = load i64, ptr %retval, align 8
  ret i64 %6
}