; Function Attrs: mustprogress nofree nounwind uwtable
define noundef i64 @_ZN6Assimp15DefaultIOStream4ReadEPvmm(ptr nocapture noundef nonnull readonly align 8 dereferenceable(56) %this, ptr nocapture noundef %pvBuffer, i64 noundef %pSize, i64 noundef %pCount) unnamed_addr #3 align 2 {
entry:
  %cmp = icmp eq i64 %pCount, 0
  br i1 %cmp, label %return, label %if.end

if.end:                                           ; preds = %entry
  %mFile = getelementptr inbounds i8, ptr %this, i64 8
  %0 = load ptr, ptr %mFile, align 8
  %tobool.not = icmp eq ptr %0, null
  br i1 %tobool.not, label %return, label %cond.true

cond.true:                                        ; preds = %if.end
  %call = tail call i64 @fread(ptr noundef %pvBuffer, i64 noundef %pSize, i64 noundef %pCount, ptr noundef nonnull %0)
  br label %return

return:                                           ; preds = %cond.true, %if.end, %entry
  %retval.0 = phi i64 [ 0, %entry ], [ %call, %cond.true ], [ 0, %if.end ]
  ret i64 %retval.0
}